; Function Attrs: mustprogress nounwind uwtable
define dso_local void @_ZN4node4quic8Endpoint31DisassociateStatelessResetTokenERKNS0_19StatelessResetTokenE(ptr noundef nonnull align 8 dereferenceable(1520) %this, ptr noundef nonnull align 8 dereferenceable(32) %token) local_unnamed_addr #3 align 2 {
entry:
  %impl_.i.i = getelementptr inbounds i8, ptr %this, i64 440
  %0 = load ptr, ptr %impl_.i.i, align 8
  %cmp.i.not.i.i.not = icmp eq ptr %0, null
  br i1 %cmp.i.not.i.i.not, label %if.then, label %if.end

if.then:                                          ; preds = %entry
  %token_map_ = getelementptr inbounds i8, ptr %this, i64 1360
  %call.i.i = tail call noundef i64 @_ZNSt10_HashtableIN4node4quic19StatelessResetTokenESt4pairIKS2_PNS1_7SessionEESaIS7_ENSt8__detail10_Select1stESt8equal_toIS2_ENS2_4HashENS9_18_Mod_range_hashingENS9_20_Default_ranged_hashENS9_20_Prime_rehash_policyENS9_17_Hashtable_traitsILb1ELb0ELb1EEEE8_M_eraseESt17integral_constantIbLb1EERS4_(ptr noundef nonnull align 8 dereferenceable(56) %token_map_, ptr noundef nonnull align 8 dereferenceable(32) %token)
  br label %if.end

if.end:                                           ; preds = %if.then, %entry
  ret void
}